target datalayout = "e-m:e-p270:32:32-p271:32:32-p272:64:64-i64:64-i128:128-f80:128-n8:16:32:64-S128"
target triple = "x86_64-pc-linux-gnu"

; Function Attrs: nounwind uwtable
define ptr @Kit_PlaStart(ptr noundef %0, i32 noundef %1, i32 noundef %2) #0 {
  %4 = alloca ptr, align 8
  %5 = alloca i32, align 4
  %6 = alloca i32, align 4
  %7 = alloca ptr, align 8
  %8 = alloca ptr, align 8
  %9 = alloca ptr, align 8
  %10 = alloca i32, align 4
  %11 = alloca i32, align 4
  store ptr %0, ptr %4, align 8, !tbaa !16
  store i32 %1, ptr %5, align 4, !tbaa !11
  store i32 %2, ptr %6, align 4, !tbaa !11
  call void @llvm.lifetime.start.p0(i64 8, ptr %7) #9
  %12 = load ptr, ptr %4, align 8, !tbaa !16
  store ptr %12, ptr %7, align 8, !tbaa !17
  call void @llvm.lifetime.start.p0(i64 8, ptr %8) #9
  call void @llvm.lifetime.start.p0(i64 8, ptr %9) #9
  call void @llvm.lifetime.start.p0(i64 4, ptr %10) #9
  call void @llvm.lifetime.start.p0(i64 4, ptr %11) #9
  %13 = load i32, ptr %5, align 4, !tbaa !11
  %14 = load i32, ptr %6, align 4, !tbaa !11
  %15 = add nsw i32 %14, 3
  %16 = mul nsw i32 %13, %15
  store i32 %16, ptr %11, align 4, !tbaa !11
  %17 = load ptr, ptr %7, align 8, !tbaa !17
  %18 = load i32, ptr %11, align 4, !tbaa !11
  %19 = add nsw i32 %18, 1
  %20 = call ptr @Aig_MmFlexEntryFetch(ptr noundef %17, i32 noundef %19)
  store ptr %20, ptr %8, align 8, !tbaa !3
  %21 = load ptr, ptr %8, align 8, !tbaa !3
  %22 = load i32, ptr %11, align 4, !tbaa !11
  %23 = sext i32 %22 to i64
  call void @llvm.memset.p0.i64(ptr align 1 %21, i8 45, i64 %23, i1 false)
  %24 = load ptr, ptr %8, align 8, !tbaa !3
  %25 = load i32, ptr %11, align 4, !tbaa !11
  %26 = sext i32 %25 to i64
  %27 = getelementptr inbounds i8, ptr %24, i64 %26
  store i8 0, ptr %27, align 1, !tbaa !8
  store i32 0, ptr %10, align 4, !tbaa !11
  br label %28

28:                                               ; preds = %55, %3
  %29 = load i32, ptr %10, align 4, !tbaa !11
  %30 = load i32, ptr %5, align 4, !tbaa !11
  %31 = icmp slt i32 %29, %30
  br i1 %31, label %32, label %58

32:                                               ; preds = %28
  %33 = load ptr, ptr %8, align 8, !tbaa !3
  %34 = load i32, ptr %10, align 4, !tbaa !11
  %35 = load i32, ptr %6, align 4, !tbaa !11
  %36 = add nsw i32 %35, 3
  %37 = mul nsw i32 %34, %36
  %38 = sext i32 %37 to i64
  %39 = getelementptr inbounds i8, ptr %33, i64 %38
  store ptr %39, ptr %9, align 8, !tbaa !3
  %40 = load ptr, ptr %9, align 8, !tbaa !3
  %41 = load i32, ptr %6, align 4, !tbaa !11
  %42 = add nsw i32 %41, 0
  %43 = sext i32 %42 to i64
  %44 = getelementptr inbounds i8, ptr %40, i64 %43
  store i8 32, ptr %44, align 1, !tbaa !8
  %45 = load ptr, ptr %9, align 8, !tbaa !3
  %46 = load i32, ptr %6, align 4, !tbaa !11
  %47 = add nsw i32 %46, 1
  %48 = sext i32 %47 to i64
  %49 = getelementptr inbounds i8, ptr %45, i64 %48
  store i8 49, ptr %49, align 1, !tbaa !8
  %50 = load ptr, ptr %9, align 8, !tbaa !3
  %51 = load i32, ptr %6, align 4, !tbaa !11
  %52 = add nsw i32 %51, 2
  %53 = sext i32 %52 to i64
  %54 = getelementptr inbounds i8, ptr %50, i64 %53
  store i8 10, ptr %54, align 1, !tbaa !8
  br label %55

55:                                               ; preds = %32
  %56 = load i32, ptr %10, align 4, !tbaa !11
  %57 = add nsw i32 %56, 1
  store i32 %57, ptr %10, align 4, !tbaa !11
  br label %28, !llvm.loop !19

58:                                               ; preds = %28
  %59 = load ptr, ptr %8, align 8, !tbaa !3
  call void @llvm.lifetime.end.p0(i64 4, ptr %11) #9
  call void @llvm.lifetime.end.p0(i64 4, ptr %10) #9
  call void @llvm.lifetime.end.p0(i64 8, ptr %9) #9
  call void @llvm.lifetime.end.p0(i64 8, ptr %8) #9
  call void @llvm.lifetime.end.p0(i64 8, ptr %7) #9
  ret ptr %59
}