; Function Attrs: nounwind uwtable
define ptr @Kit_PlaStart(ptr noundef %0, i32 noundef %1, i32 noundef %2) local_unnamed_addr #3 {
  %4 = add nsw i32 %2, 3
  %5 = mul nsw i32 %4, %1
  %6 = add nsw i32 %5, 1
  %7 = tail call ptr @Aig_MmFlexEntryFetch(ptr noundef %0, i32 noundef %6) #12
  %8 = sext i32 %5 to i64
  tail call void @llvm.memset.p0.i64(ptr align 1 %7, i8 45, i64 %8, i1 false)
  %9 = getelementptr inbounds i8, ptr %7, i64 %8
  store i8 0, ptr %9, align 1, !tbaa !3
  %10 = icmp sgt i32 %1, 0
  br i1 %10, label %.lr.ph, label %._crit_edge

.lr.ph:                                           ; preds = %3
  %11 = sext i32 %2 to i64
  %invariant.gep = getelementptr i8, ptr %7, i64 %11
  %12 = sext i32 %4 to i64
  %wide.trip.count = zext nneg i32 %1 to i64
  br label %13

13:                                               ; preds = %.lr.ph, %13
  %indvars.iv = phi i64 [ 0, %.lr.ph ], [ %indvars.iv.next, %13 ]
  %14 = mul nsw i64 %indvars.iv, %12
  %gep = getelementptr i8, ptr %invariant.gep, i64 %14
  store i8 32, ptr %gep, align 1, !tbaa !3
  %15 = getelementptr i8, ptr %gep, i64 1
  store i8 49, ptr %15, align 1, !tbaa !3
  %16 = getelementptr i8, ptr %gep, i64 2
  store i8 10, ptr %16, align 1, !tbaa !3
  %indvars.iv.next = add nuw nsw i64 %indvars.iv, 1
  %exitcond.not = icmp eq i64 %indvars.iv.next, %wide.trip.count
  br i1 %exitcond.not, label %._crit_edge, label %13, !llvm.loop !11

._crit_edge:                                      ; preds = %13, %3
  ret ptr %7
}